target datalayout = "e-m:e-p270:32:32-p271:32:32-p272:64:64-i64:64-i128:128-f80:128-n8:16:32:64-S128"
target triple = "x86_64-pc-linux-gnu"

%struct.epan_column_info = type { ptr, i32, ptr, ptr, ptr, %struct.col_expr_t, i32, ptr }
%struct.col_expr_t = type { ptr, ptr }
%struct.col_item_t = type { i32, ptr, ptr, ptr, i32, ptr, ptr, ptr, ptr, i32, i32, i32 }

; Function Attrs: nounwind uwtable
define void @col_set_writable(ptr noundef %0, i32 noundef %1, i32 noundef %2) #0 {
  %4 = alloca ptr, align 8
  %5 = alloca i32, align 4
  %6 = alloca i32, align 4
  %7 = alloca i32, align 4
  %8 = alloca ptr, align 8
  store ptr %0, ptr %4, align 8
  store i32 %1, ptr %5, align 4
  store i32 %2, ptr %6, align 4
  %9 = load ptr, ptr %4, align 8
  %10 = icmp ne ptr %9, null
  br i1 %10, label %11, label %71

11:                                               ; preds = %3
  %12 = load i32, ptr %5, align 4
  %13 = icmp eq i32 %12, -1
  br i1 %13, label %14, label %18

14:                                               ; preds = %11
  %15 = load i32, ptr %6, align 4
  %16 = load ptr, ptr %4, align 8
  %17 = getelementptr inbounds %struct.epan_column_info, ptr %16, i32 0, i32 6
  store i32 %15, ptr %17, align 8
  br label %70

18:                                               ; preds = %11
  %19 = load ptr, ptr %4, align 8
  %20 = getelementptr inbounds %struct.epan_column_info, ptr %19, i32 0, i32 3
  %21 = load ptr, ptr %20, align 8
  %22 = load i32, ptr %5, align 4
  %23 = sext i32 %22 to i64
  %24 = getelementptr i32, ptr %21, i64 %23
  %25 = load i32, ptr %24, align 4
  %26 = icmp sge i32 %25, 0
  br i1 %26, label %27, label %69

27:                                               ; preds = %18
  %28 = load ptr, ptr %4, align 8
  %29 = getelementptr inbounds %struct.epan_column_info, ptr %28, i32 0, i32 3
  %30 = load ptr, ptr %29, align 8
  %31 = load i32, ptr %5, align 4
  %32 = sext i32 %31 to i64
  %33 = getelementptr i32, ptr %30, i64 %32
  %34 = load i32, ptr %33, align 4
  store i32 %34, ptr %7, align 4
  br label %35

35:                                               ; preds = %65, %27
  %36 = load i32, ptr %7, align 4
  %37 = load ptr, ptr %4, align 8
  %38 = getelementptr inbounds %struct.epan_column_info, ptr %37, i32 0, i32 4
  %39 = load ptr, ptr %38, align 8
  %40 = load i32, ptr %5, align 4
  %41 = sext i32 %40 to i64
  %42 = getelementptr i32, ptr %39, i64 %41
  %43 = load i32, ptr %42, align 4
  %44 = icmp sle i32 %36, %43
  br i1 %44, label %45, label %68

45:                                               ; preds = %35
  %46 = load ptr, ptr %4, align 8
  %47 = getelementptr inbounds %struct.epan_column_info, ptr %46, i32 0, i32 2
  %48 = load ptr, ptr %47, align 8
  %49 = load i32, ptr %7, align 4
  %50 = sext i32 %49 to i64
  %51 = getelementptr %struct.col_item_t, ptr %48, i64 %50
  store ptr %51, ptr %8, align 8
  %52 = load ptr, ptr %8, align 8
  %53 = getelementptr inbounds %struct.col_item_t, ptr %52, i32 0, i32 1
  %54 = load ptr, ptr %53, align 8
  %55 = load i32, ptr %5, align 4
  %56 = sext i32 %55 to i64
  %57 = getelementptr i32, ptr %54, i64 %56
  %58 = load i32, ptr %57, align 4
  %59 = icmp ne i32 %58, 0
  br i1 %59, label %60, label %64

60:                                               ; preds = %45
  %61 = load i32, ptr %6, align 4
  %62 = load ptr, ptr %8, align 8
  %63 = getelementptr inbounds %struct.col_item_t, ptr %62, i32 0, i32 10
  store i32 %61, ptr %63, align 4
  br label %64

64:                                               ; preds = %60, %45
  br label %65

65:                                               ; preds = %64
  %66 = load i32, ptr %7, align 4
  %67 = add i32 %66, 1
  store i32 %67, ptr %7, align 4
  br label %35, !llvm.loop !10

68:                                               ; preds = %35
  br label %69

69:                                               ; preds = %68, %18
  br label %70

70:                                               ; preds = %69, %14
  br label %71

71:                                               ; preds = %70, %3
  ret void
}