; Function Attrs: nofree norecurse nosync nounwind memory(readwrite, inaccessiblemem: none) uwtable
define void @col_set_writable(ptr noundef %0, i32 noundef %1, i32 noundef %2) local_unnamed_addr #4 {
  %.not = icmp eq ptr %0, null
  br i1 %.not, label %.loopexit, label %4

4:                                                ; preds = %3
  %5 = icmp eq i32 %1, -1
  br i1 %5, label %6, label %8

6:                                                ; preds = %4
  %7 = getelementptr inbounds nuw i8, ptr %0, i64 56
  store i32 %2, ptr %7, align 8
  br label %.loopexit

8:                                                ; preds = %4
  %9 = getelementptr inbounds nuw i8, ptr %0, i64 24
  %10 = load ptr, ptr %9, align 8
  %11 = sext i32 %1 to i64
  %12 = getelementptr i32, ptr %10, i64 %11
  %13 = load i32, ptr %12, align 4
  %14 = icmp sgt i32 %13, -1
  br i1 %14, label %.preheader, label %.loopexit

.preheader:                                       ; preds = %8
  %15 = getelementptr inbounds nuw i8, ptr %0, i64 32
  %16 = load ptr, ptr %15, align 8
  %17 = getelementptr i32, ptr %16, i64 %11
  %18 = load i32, ptr %17, align 4
  %.not2022 = icmp sgt i32 %13, %18
  br i1 %.not2022, label %.loopexit, label %.lr.ph

.lr.ph:                                           ; preds = %.preheader
  %19 = getelementptr inbounds nuw i8, ptr %0, i64 16
  br label %20

20:                                               ; preds = %.lr.ph, %31
  %21 = phi ptr [ %16, %.lr.ph ], [ %32, %31 ]
  %.023 = phi i32 [ %13, %.lr.ph ], [ %33, %31 ]
  %22 = load ptr, ptr %19, align 8
  %23 = sext i32 %.023 to i64
  %24 = getelementptr %struct.col_item_t, ptr %22, i64 %23
  %25 = getelementptr inbounds nuw i8, ptr %24, i64 8
  %26 = load ptr, ptr %25, align 8
  %27 = getelementptr i32, ptr %26, i64 %11
  %28 = load i32, ptr %27, align 4
  %.not21 = icmp eq i32 %28, 0
  br i1 %.not21, label %31, label %29

29:                                               ; preds = %20
  %30 = getelementptr inbounds nuw i8, ptr %24, i64 76
  store i32 %2, ptr %30, align 4
  %.pre = load ptr, ptr %15, align 8
  br label %31

31:                                               ; preds = %20, %29
  %32 = phi ptr [ %21, %20 ], [ %.pre, %29 ]
  %33 = add i32 %.023, 1
  %34 = getelementptr i32, ptr %32, i64 %11
  %35 = load i32, ptr %34, align 4
  %.not20 = icmp sgt i32 %33, %35
  br i1 %.not20, label %.loopexit, label %20, !llvm.loop !10

.loopexit:                                        ; preds = %31, %.preheader, %6, %8, %3
  ret void
}